target datalayout = "e-m:e-p270:32:32-p271:32:32-p272:64:64-i64:64-i128:128-f80:128-n8:16:32:64-S128"
target triple = "x86_64-pc-linux-gnu"

%struct.prov_rc4_hmac_md5_ctx_st = type { %struct.prov_cipher_ctx_st, %union.anon.0, %struct.MD5state_st, %struct.MD5state_st, %struct.MD5state_st, i64, i64 }
%struct.prov_cipher_ctx_st = type { [16 x i8], [16 x i8], [16 x i8], ptr, %union.anon, i32, i64, i64, i64, i64, i32, i8, i32, ptr, i32, i64, i32, i64, i32, ptr, ptr, ptr }
%union.anon = type { ptr }
%union.anon.0 = type { double, [1024 x i8] }
%struct.MD5state_st = type { i32, i32, i32, i32, i32, i32, [16 x i32], i32 }

; Function Attrs: nounwind uwtable
define internal i32 @cipher_hw_rc4_hmac_md5_initkey(ptr noundef %0, ptr noundef %1, i64 noundef %2) #0 {
  %4 = alloca ptr, align 8
  %5 = alloca ptr, align 8
  %6 = alloca i64, align 8
  %7 = alloca ptr, align 8
  store ptr %0, ptr %4, align 8, !tbaa !7
  store ptr %1, ptr %5, align 8, !tbaa !10
  store i64 %2, ptr %6, align 8, !tbaa !3
  call void @llvm.lifetime.start.p0(i64 8, ptr %7) #5
  %8 = load ptr, ptr %4, align 8, !tbaa !7
  store ptr %8, ptr %7, align 8, !tbaa !12
  %9 = load ptr, ptr %7, align 8, !tbaa !12
  %10 = getelementptr inbounds nuw %struct.prov_rc4_hmac_md5_ctx_st, ptr %9, i32 0, i32 1
  %11 = load i64, ptr %6, align 8, !tbaa !3
  %12 = trunc i64 %11 to i32
  %13 = load ptr, ptr %5, align 8, !tbaa !10
  call void @RC4_set_key(ptr noundef %10, i32 noundef %12, ptr noundef %13)
  %14 = load ptr, ptr %7, align 8, !tbaa !12
  %15 = getelementptr inbounds nuw %struct.prov_rc4_hmac_md5_ctx_st, ptr %14, i32 0, i32 2
  %16 = call i32 @MD5_Init(ptr noundef %15)
  %17 = load ptr, ptr %7, align 8, !tbaa !12
  %18 = getelementptr inbounds nuw %struct.prov_rc4_hmac_md5_ctx_st, ptr %17, i32 0, i32 3
  %19 = load ptr, ptr %7, align 8, !tbaa !12
  %20 = getelementptr inbounds nuw %struct.prov_rc4_hmac_md5_ctx_st, ptr %19, i32 0, i32 2
  call void @llvm.memcpy.p0.p0.i64(ptr align 4 %18, ptr align 8 %20, i64 92, i1 false), !tbaa.struct !14
  %21 = load ptr, ptr %7, align 8, !tbaa !12
  %22 = getelementptr inbounds nuw %struct.prov_rc4_hmac_md5_ctx_st, ptr %21, i32 0, i32 4
  %23 = load ptr, ptr %7, align 8, !tbaa !12
  %24 = getelementptr inbounds nuw %struct.prov_rc4_hmac_md5_ctx_st, ptr %23, i32 0, i32 2
  call void @llvm.memcpy.p0.p0.i64(ptr align 8 %22, ptr align 8 %24, i64 92, i1 false), !tbaa.struct !14
  %25 = load ptr, ptr %7, align 8, !tbaa !12
  %26 = getelementptr inbounds nuw %struct.prov_rc4_hmac_md5_ctx_st, ptr %25, i32 0, i32 5
  store i64 -1, ptr %26, align 8, !tbaa !18
  %27 = load ptr, ptr %4, align 8, !tbaa !7
  %28 = getelementptr inbounds nuw %struct.prov_cipher_ctx_st, ptr %27, i32 0, i32 17
  store i64 16, ptr %28, align 8, !tbaa !24
  call void @llvm.lifetime.end.p0(i64 8, ptr %7) #5
  ret i32 1
}