; Function Attrs: nounwind uwtable
define internal noundef i32 @cipher_hw_rc4_hmac_md5_initkey(ptr noundef %0, ptr noundef %1, i64 noundef %2) #1 {
  %4 = getelementptr inbounds nuw i8, ptr %0, i64 192
  %5 = trunc i64 %2 to i32
  tail call void @RC4_set_key(ptr noundef nonnull %4, i32 noundef %5, ptr noundef %1) #6
  %6 = getelementptr inbounds nuw i8, ptr %0, i64 1224
  %7 = tail call i32 @MD5_Init(ptr noundef nonnull %6) #6
  %8 = getelementptr inbounds nuw i8, ptr %0, i64 1316
  tail call void @llvm.memcpy.p0.p0.i64(ptr noundef nonnull align 4 dereferenceable(92) %8, ptr noundef nonnull align 8 dereferenceable(92) %6, i64 92, i1 false), !tbaa.struct !3
  %9 = getelementptr inbounds nuw i8, ptr %0, i64 1408
  tail call void @llvm.memcpy.p0.p0.i64(ptr noundef nonnull align 8 dereferenceable(92) %9, ptr noundef nonnull align 8 dereferenceable(92) %6, i64 92, i1 false), !tbaa.struct !3
  %10 = getelementptr inbounds nuw i8, ptr %0, i64 1504
  store i64 -1, ptr %10, align 8, !tbaa !9
  %11 = getelementptr inbounds nuw i8, ptr %0, i64 152
  store i64 16, ptr %11, align 8, !tbaa !18
  ret i32 1
}